target datalayout = "e-m:e-p270:32:32-p271:32:32-p272:64:64-i64:64-i128:128-f80:128-n8:16:32:64-S128"
target triple = "x86_64-pc-linux-gnu"

%struct.FunctionCallInfoBaseData = type { ptr, ptr, ptr, i32, i8, i16, [0 x %struct.NullableDatum] }
%struct.NullableDatum = type { i64, i8 }
%struct.DictSnowball = type { ptr, %struct.StopList, i8, ptr, ptr }
%struct.StopList = type { i32, ptr }
%struct.TSLexeme = type { i16, i16, ptr }
%struct.SN_env = type { ptr, i32, i32, i32, i32, i32, ptr, ptr }

@CurrentMemoryContext = external global ptr, align 8

; Function Attrs: inlinehint nounwind uwtable
define internal i64 @PointerGetDatum(ptr noundef %0) #2 {
  %2 = alloca ptr, align 8
  store ptr %0, ptr %2, align 8
  %3 = load ptr, ptr %2, align 8
  %4 = ptrtoint ptr %3 to i64
  ret i64 %4
}

; Function Attrs: inlinehint nounwind uwtable
define internal ptr @MemoryContextSwitchTo(ptr noundef %0) #2 {
  %2 = alloca ptr, align 8
  %3 = alloca ptr, align 8
  store ptr %0, ptr %2, align 8
  call void @llvm.lifetime.start.p0(i64 8, ptr %3) #8
  %4 = load ptr, ptr @CurrentMemoryContext, align 8
  store ptr %4, ptr %3, align 8
  %5 = load ptr, ptr %2, align 8
  store ptr %5, ptr @CurrentMemoryContext, align 8
  %6 = load ptr, ptr %3, align 8
  call void @llvm.lifetime.end.p0(i64 8, ptr %3) #8
  ret ptr %6
}

; Function Attrs: inlinehint nounwind uwtable
define internal i32 @DatumGetInt32(i64 noundef %0) #2 {
  %2 = alloca i64, align 8
  store i64 %0, ptr %2, align 8
  %3 = load i64, ptr %2, align 8
  %4 = trunc i64 %3 to i32
  ret i32 %4
}

; Function Attrs: inlinehint nounwind uwtable
define internal ptr @DatumGetPointer(i64 noundef %0) #2 {
  %2 = alloca i64, align 8
  store i64 %0, ptr %2, align 8
  %3 = load i64, ptr %2, align 8
  %4 = inttoptr i64 %3 to ptr
  ret ptr %4
}

; Function Attrs: nounwind uwtable
define i64 @dsnowball_lexize(ptr noundef %0) #0 {
  %2 = alloca ptr, align 8
  %3 = alloca ptr, align 8
  %4 = alloca ptr, align 8
  %5 = alloca i32, align 4
  %6 = alloca ptr, align 8
  %7 = alloca ptr, align 8
  %8 = alloca ptr, align 8
  %9 = alloca ptr, align 8
  %10 = alloca ptr, align 8
  store ptr %0, ptr %2, align 8
  call void @llvm.lifetime.start.p0(i64 8, ptr %3) #8
  %11 = load ptr, ptr %2, align 8
  %12 = getelementptr inbounds nuw %struct.FunctionCallInfoBaseData, ptr %11, i32 0, i32 6
  %13 = getelementptr inbounds [0 x %struct.NullableDatum], ptr %12, i64 0, i64 0
  %14 = getelementptr inbounds nuw %struct.NullableDatum, ptr %13, i32 0, i32 0
  %15 = load i64, ptr %14, align 8
  %16 = call ptr @DatumGetPointer(i64 noundef %15)
  store ptr %16, ptr %3, align 8
  call void @llvm.lifetime.start.p0(i64 8, ptr %4) #8
  %17 = load ptr, ptr %2, align 8
  %18 = getelementptr inbounds nuw %struct.FunctionCallInfoBaseData, ptr %17, i32 0, i32 6
  %19 = getelementptr inbounds [0 x %struct.NullableDatum], ptr %18, i64 0, i64 1
  %20 = getelementptr inbounds nuw %struct.NullableDatum, ptr %19, i32 0, i32 0
  %21 = load i64, ptr %20, align 8
  %22 = call ptr @DatumGetPointer(i64 noundef %21)
  store ptr %22, ptr %4, align 8
  call void @llvm.lifetime.start.p0(i64 4, ptr %5) #8
  %23 = load ptr, ptr %2, align 8
  %24 = getelementptr inbounds nuw %struct.FunctionCallInfoBaseData, ptr %23, i32 0, i32 6
  %25 = getelementptr inbounds [0 x %struct.NullableDatum], ptr %24, i64 0, i64 2
  %26 = getelementptr inbounds nuw %struct.NullableDatum, ptr %25, i32 0, i32 0
  %27 = load i64, ptr %26, align 8
  %28 = call i32 @DatumGetInt32(i64 noundef %27)
  store i32 %28, ptr %5, align 4
  call void @llvm.lifetime.start.p0(i64 8, ptr %6) #8
  %29 = load ptr, ptr %4, align 8
  %30 = load i32, ptr %5, align 4
  %31 = sext i32 %30 to i64
  %32 = call ptr @str_tolower(ptr noundef %29, i64 noundef %31, i32 noundef 100)
  store ptr %32, ptr %6, align 8
  call void @llvm.lifetime.start.p0(i64 8, ptr %7) #8
  %33 = call ptr @palloc0(i64 noundef 32)
  store ptr %33, ptr %7, align 8
  %34 = load i32, ptr %5, align 4
  %35 = icmp sgt i32 %34, 1000
  br i1 %35, label %36, label %40

36:                                               ; preds = %1
  %37 = load ptr, ptr %6, align 8
  %38 = load ptr, ptr %7, align 8
  %39 = getelementptr inbounds nuw %struct.TSLexeme, ptr %38, i32 0, i32 2
  store ptr %37, ptr %39, align 8
  br label %158

40:                                               ; preds = %1
  %41 = load ptr, ptr %6, align 8
  %42 = load i8, ptr %41, align 1
  %43 = sext i8 %42 to i32
  %44 = icmp eq i32 %43, 0
  br i1 %44, label %50, label %45

45:                                               ; preds = %40
  %46 = load ptr, ptr %3, align 8
  %47 = getelementptr inbounds nuw %struct.DictSnowball, ptr %46, i32 0, i32 1
  %48 = load ptr, ptr %6, align 8
  %49 = call zeroext i1 @searchstoplist(ptr noundef %47, ptr noundef %48)
  br i1 %49, label %50, label %52

50:                                               ; preds = %45, %40
  %51 = load ptr, ptr %6, align 8
  call void @pfree(ptr noundef %51)
  br label %157

52:                                               ; preds = %45
  call void @llvm.lifetime.start.p0(i64 8, ptr %8) #8
  %53 = load ptr, ptr %3, align 8
  %54 = getelementptr inbounds nuw %struct.DictSnowball, ptr %53, i32 0, i32 2
  %55 = load i8, ptr %54, align 8, !range !3, !noundef !4
  %56 = trunc i8 %55 to i1
  br i1 %56, label %57, label %70

57:                                               ; preds = %52
  call void @llvm.lifetime.start.p0(i64 8, ptr %9) #8
  %58 = load ptr, ptr %6, align 8
  %59 = load ptr, ptr %6, align 8
  %60 = call i64 @strlen(ptr noundef %59) #9
  %61 = trunc i64 %60 to i32
  %62 = call ptr @pg_server_to_any(ptr noundef %58, i32 noundef %61, i32 noundef 6)
  store ptr %62, ptr %9, align 8
  %63 = load ptr, ptr %9, align 8
  %64 = load ptr, ptr %6, align 8
  %65 = icmp ne ptr %63, %64
  br i1 %65, label %66, label %69

66:                                               ; preds = %57
  %67 = load ptr, ptr %6, align 8
  call void @pfree(ptr noundef %67)
  %68 = load ptr, ptr %9, align 8
  store ptr %68, ptr %6, align 8
  br label %69

69:                                               ; preds = %66, %57
  call void @llvm.lifetime.end.p0(i64 8, ptr %9) #8
  br label %70

70:                                               ; preds = %69, %52
  %71 = load ptr, ptr %3, align 8
  %72 = getelementptr inbounds nuw %struct.DictSnowball, ptr %71, i32 0, i32 4
  %73 = load ptr, ptr %72, align 8
  %74 = call ptr @MemoryContextSwitchTo(ptr noundef %73)
  store ptr %74, ptr %8, align 8
  %75 = load ptr, ptr %3, align 8
  %76 = getelementptr inbounds nuw %struct.DictSnowball, ptr %75, i32 0, i32 0
  %77 = load ptr, ptr %76, align 8
  %78 = load ptr, ptr %6, align 8
  %79 = call i64 @strlen(ptr noundef %78) #9
  %80 = trunc i64 %79 to i32
  %81 = load ptr, ptr %6, align 8
  %82 = call i32 @SN_set_current(ptr noundef %77, i32 noundef %80, ptr noundef %81)
  %83 = load ptr, ptr %3, align 8
  %84 = getelementptr inbounds nuw %struct.DictSnowball, ptr %83, i32 0, i32 3
  %85 = load ptr, ptr %84, align 8
  %86 = load ptr, ptr %3, align 8
  %87 = getelementptr inbounds nuw %struct.DictSnowball, ptr %86, i32 0, i32 0
  %88 = load ptr, ptr %87, align 8
  %89 = call i32 %85(ptr noundef %88)
  %90 = load ptr, ptr %8, align 8
  %91 = call ptr @MemoryContextSwitchTo(ptr noundef %90)
  %92 = load ptr, ptr %3, align 8
  %93 = getelementptr inbounds nuw %struct.DictSnowball, ptr %92, i32 0, i32 0
  %94 = load ptr, ptr %93, align 8
  %95 = getelementptr inbounds nuw %struct.SN_env, ptr %94, i32 0, i32 0
  %96 = load ptr, ptr %95, align 8
  %97 = icmp ne ptr %96, null
  br i1 %97, label %98, label %135

98:                                               ; preds = %70
  %99 = load ptr, ptr %3, align 8
  %100 = getelementptr inbounds nuw %struct.DictSnowball, ptr %99, i32 0, i32 0
  %101 = load ptr, ptr %100, align 8
  %102 = getelementptr inbounds nuw %struct.SN_env, ptr %101, i32 0, i32 2
  %103 = load i32, ptr %102, align 4
  %104 = icmp ne i32 %103, 0
  br i1 %104, label %105, label %135

105:                                              ; preds = %98
  %106 = load ptr, ptr %6, align 8
  %107 = load ptr, ptr %3, align 8
  %108 = getelementptr inbounds nuw %struct.DictSnowball, ptr %107, i32 0, i32 0
  %109 = load ptr, ptr %108, align 8
  %110 = getelementptr inbounds nuw %struct.SN_env, ptr %109, i32 0, i32 2
  %111 = load i32, ptr %110, align 4
  %112 = add i32 %111, 1
  %113 = sext i32 %112 to i64
  %114 = call ptr @repalloc(ptr noundef %106, i64 noundef %113)
  store ptr %114, ptr %6, align 8
  %115 = load ptr, ptr %6, align 8
  %116 = load ptr, ptr %3, align 8
  %117 = getelementptr inbounds nuw %struct.DictSnowball, ptr %116, i32 0, i32 0
  %118 = load ptr, ptr %117, align 8
  %119 = getelementptr inbounds nuw %struct.SN_env, ptr %118, i32 0, i32 0
  %120 = load ptr, ptr %119, align 8
  %121 = load ptr, ptr %3, align 8
  %122 = getelementptr inbounds nuw %struct.DictSnowball, ptr %121, i32 0, i32 0
  %123 = load ptr, ptr %122, align 8
  %124 = getelementptr inbounds nuw %struct.SN_env, ptr %123, i32 0, i32 2
  %125 = load i32, ptr %124, align 4
  %126 = sext i32 %125 to i64
  call void @llvm.memcpy.p0.p0.i64(ptr align 1 %115, ptr align 1 %120, i64 %126, i1 false)
  %127 = load ptr, ptr %6, align 8
  %128 = load ptr, ptr %3, align 8
  %129 = getelementptr inbounds nuw %struct.DictSnowball, ptr %128, i32 0, i32 0
  %130 = load ptr, ptr %129, align 8
  %131 = getelementptr inbounds nuw %struct.SN_env, ptr %130, i32 0, i32 2
  %132 = load i32, ptr %131, align 4
  %133 = sext i32 %132 to i64
  %134 = getelementptr inbounds i8, ptr %127, i64 %133
  store i8 0, ptr %134, align 1
  br label %135

135:                                              ; preds = %105, %98, %70
  %136 = load ptr, ptr %3, align 8
  %137 = getelementptr inbounds nuw %struct.DictSnowball, ptr %136, i32 0, i32 2
  %138 = load i8, ptr %137, align 8, !range !3, !noundef !4
  %139 = trunc i8 %138 to i1
  br i1 %139, label %140, label %153

140:                                              ; preds = %135
  call void @llvm.lifetime.start.p0(i64 8, ptr %10) #8
  %141 = load ptr, ptr %6, align 8
  %142 = load ptr, ptr %6, align 8
  %143 = call i64 @strlen(ptr noundef %142) #9
  %144 = trunc i64 %143 to i32
  %145 = call ptr @pg_any_to_server(ptr noundef %141, i32 noundef %144, i32 noundef 6)
  store ptr %145, ptr %10, align 8
  %146 = load ptr, ptr %10, align 8
  %147 = load ptr, ptr %6, align 8
  %148 = icmp ne ptr %146, %147
  br i1 %148, label %149, label %152

149:                                              ; preds = %140
  %150 = load ptr, ptr %6, align 8
  call void @pfree(ptr noundef %150)
  %151 = load ptr, ptr %10, align 8
  store ptr %151, ptr %6, align 8
  br label %152

152:                                              ; preds = %149, %140
  call void @llvm.lifetime.end.p0(i64 8, ptr %10) #8
  br label %153

153:                                              ; preds = %152, %135
  %154 = load ptr, ptr %6, align 8
  %155 = load ptr, ptr %7, align 8
  %156 = getelementptr inbounds nuw %struct.TSLexeme, ptr %155, i32 0, i32 2
  store ptr %154, ptr %156, align 8
  call void @llvm.lifetime.end.p0(i64 8, ptr %8) #8
  br label %157

157:                                              ; preds = %153, %50
  br label %158

158:                                              ; preds = %157, %36
  %159 = load ptr, ptr %7, align 8
  %160 = call i64 @PointerGetDatum(ptr noundef %159)
  call void @llvm.lifetime.end.p0(i64 8, ptr %7) #8
  call void @llvm.lifetime.end.p0(i64 8, ptr %6) #8
  call void @llvm.lifetime.end.p0(i64 4, ptr %5) #8
  call void @llvm.lifetime.end.p0(i64 8, ptr %4) #8
  call void @llvm.lifetime.end.p0(i64 8, ptr %3) #8
  ret i64 %160
}