; Function Attrs: nounwind uwtable
define i64 @dsnowball_lexize(ptr noundef readonly captures(none) %0) local_unnamed_addr #1 {
  %2 = getelementptr inbounds nuw i8, ptr %0, i64 32
  %3 = load i64, ptr %2, align 8
  %4 = inttoptr i64 %3 to ptr
  %5 = getelementptr inbounds nuw i8, ptr %0, i64 48
  %6 = load i64, ptr %5, align 8
  %7 = inttoptr i64 %6 to ptr
  %8 = getelementptr inbounds nuw i8, ptr %0, i64 64
  %9 = load i64, ptr %8, align 8
  %10 = trunc i64 %9 to i32
  %sext = shl i64 %9, 32
  %11 = ashr exact i64 %sext, 32
  %12 = tail call ptr @str_tolower(ptr noundef %7, i64 noundef %11, i32 noundef 100) #7
  %13 = tail call ptr @palloc0(i64 noundef 32) #7
  %14 = icmp sgt i32 %10, 1000
  br i1 %14, label %15, label %17

15:                                               ; preds = %1
  %16 = getelementptr inbounds nuw i8, ptr %13, i64 8
  store ptr %12, ptr %16, align 8
  br label %74

17:                                               ; preds = %1
  %18 = load i8, ptr %12, align 1
  %19 = icmp eq i8 %18, 0
  br i1 %19, label %23, label %20

20:                                               ; preds = %17
  %21 = getelementptr inbounds nuw i8, ptr %4, i64 8
  %22 = tail call zeroext i1 @searchstoplist(ptr noundef nonnull %21, ptr noundef nonnull %12) #7
  br i1 %22, label %23, label %24

23:                                               ; preds = %20, %17
  tail call void @pfree(ptr noundef nonnull %12) #7
  br label %74

24:                                               ; preds = %20
  %25 = getelementptr inbounds nuw i8, ptr %4, i64 24
  %26 = load i8, ptr %25, align 8, !range !6, !noundef !7
  %27 = trunc nuw i8 %26 to i1
  br i1 %27, label %28, label %33

28:                                               ; preds = %24
  %29 = tail call i64 @strlen(ptr noundef nonnull dereferenceable(1) %12) #8
  %30 = trunc i64 %29 to i32
  %31 = tail call ptr @pg_server_to_any(ptr noundef nonnull %12, i32 noundef %30, i32 noundef 6) #7
  %.not = icmp eq ptr %31, %12
  br i1 %.not, label %33, label %32

32:                                               ; preds = %28
  tail call void @pfree(ptr noundef nonnull %12) #7
  br label %33

33:                                               ; preds = %28, %32, %24
  %.0 = phi ptr [ %12, %24 ], [ %31, %32 ], [ %12, %28 ]
  %34 = getelementptr inbounds nuw i8, ptr %4, i64 40
  %35 = load ptr, ptr %34, align 8
  %36 = load ptr, ptr @CurrentMemoryContext, align 8
  store ptr %35, ptr @CurrentMemoryContext, align 8
  %37 = load ptr, ptr %4, align 8
  %38 = tail call i64 @strlen(ptr noundef nonnull dereferenceable(1) %.0) #8
  %39 = trunc i64 %38 to i32
  %40 = tail call i32 @SN_set_current(ptr noundef %37, i32 noundef %39, ptr noundef nonnull %.0) #7
  %41 = getelementptr inbounds nuw i8, ptr %4, i64 32
  %42 = load ptr, ptr %41, align 8
  %43 = load ptr, ptr %4, align 8
  %44 = tail call i32 %42(ptr noundef %43) #7
  store ptr %36, ptr @CurrentMemoryContext, align 8
  %45 = load ptr, ptr %4, align 8
  %46 = load ptr, ptr %45, align 8
  %.not49 = icmp eq ptr %46, null
  br i1 %.not49, label %64, label %47

47:                                               ; preds = %33
  %48 = getelementptr inbounds nuw i8, ptr %45, i64 12
  %49 = load i32, ptr %48, align 4
  %.not50 = icmp eq i32 %49, 0
  br i1 %.not50, label %64, label %50

50:                                               ; preds = %47
  %51 = add i32 %49, 1
  %52 = sext i32 %51 to i64
  %53 = tail call ptr @repalloc(ptr noundef nonnull %.0, i64 noundef %52) #7
  %54 = load ptr, ptr %4, align 8
  %55 = load ptr, ptr %54, align 8
  %56 = getelementptr inbounds nuw i8, ptr %54, i64 12
  %57 = load i32, ptr %56, align 4
  %58 = sext i32 %57 to i64
  tail call void @llvm.memcpy.p0.p0.i64(ptr align 1 %53, ptr align 1 %55, i64 %58, i1 false)
  %59 = load ptr, ptr %4, align 8
  %60 = getelementptr inbounds nuw i8, ptr %59, i64 12
  %61 = load i32, ptr %60, align 4
  %62 = sext i32 %61 to i64
  %63 = getelementptr inbounds i8, ptr %53, i64 %62
  store i8 0, ptr %63, align 1
  br label %64

64:                                               ; preds = %50, %47, %33
  %.2 = phi ptr [ %53, %50 ], [ %.0, %47 ], [ %.0, %33 ]
  %65 = load i8, ptr %25, align 8, !range !6, !noundef !7
  %66 = trunc nuw i8 %65 to i1
  br i1 %66, label %67, label %72

67:                                               ; preds = %64
  %68 = tail call i64 @strlen(ptr noundef nonnull dereferenceable(1) %.2) #8
  %69 = trunc i64 %68 to i32
  %70 = tail call ptr @pg_any_to_server(ptr noundef nonnull %.2, i32 noundef %69, i32 noundef 6) #7
  %.not51 = icmp eq ptr %70, %.2
  br i1 %.not51, label %72, label %71

71:                                               ; preds = %67
  tail call void @pfree(ptr noundef nonnull %.2) #7
  br label %72

72:                                               ; preds = %67, %71, %64
  %.3 = phi ptr [ %.2, %64 ], [ %70, %71 ], [ %.2, %67 ]
  %73 = getelementptr inbounds nuw i8, ptr %13, i64 8
  store ptr %.3, ptr %73, align 8
  br label %74

74:                                               ; preds = %23, %72, %15
  %75 = ptrtoint ptr %13 to i64
  ret i64 %75
}